target datalayout = "e-m:e-p270:32:32-p271:32:32-p272:64:64-i64:64-i128:128-f80:128-n8:16:32:64-S128"
target triple = "x86_64-unknown-linux-gnu"

%"class.icu_75::UObject" = type { ptr }
%"class.icu_75::UnicodeString" = type { %"class.icu_75::Replaceable", %"union.icu_75::UnicodeString::StackBufferOrFields" }
%"class.icu_75::Replaceable" = type { %"class.icu_75::UObject" }
%"union.icu_75::UnicodeString::StackBufferOrFields" = type { %struct.anon.0, [32 x i8] }
%struct.anon.0 = type { i16, i32, i32, ptr }
%"class.icu_75::RuleBasedTransliterator" = type <{ %"class.icu_75::Transliterator.base", [4 x i8], ptr, i8, [7 x i8] }>
%"class.icu_75::Transliterator.base" = type <{ %"class.icu_75::UObject", %"class.icu_75::UnicodeString", ptr, i32 }>

; Function Attrs: mustprogress uwtable
define void @_ZN6icu_7523RuleBasedTransliteratorC2ERKS0_(ptr noundef nonnull align 8 dereferenceable(97) %this, ptr noundef nonnull align 8 dereferenceable(97) %other) unnamed_addr #1 align 2 personality ptr @__gxx_personality_v0 {
entry:
  %this.addr = alloca ptr, align 8
  %other.addr = alloca ptr, align 8
  %saved-rvalue = alloca ptr, align 8
  %cleanup.cond = alloca i1, align 1
  %exn.slot = alloca ptr, align 8
  %ehselector.slot = alloca i32, align 4
  store ptr %this, ptr %this.addr, align 8
  store ptr %other, ptr %other.addr, align 8
  %this1 = load ptr, ptr %this.addr, align 8
  %0 = load ptr, ptr %other.addr, align 8
  call void @_ZN6icu_7514TransliteratorC2ERKS0_(ptr noundef nonnull align 8 dereferenceable(84) %this1, ptr noundef nonnull align 8 dereferenceable(84) %0)
  store ptr getelementptr inbounds ({ [19 x ptr] }, ptr @_ZTVN6icu_7523RuleBasedTransliteratorE, i32 0, i32 0, i32 2), ptr %this1, align 8
  %fData = getelementptr inbounds %"class.icu_75::RuleBasedTransliterator", ptr %this1, i32 0, i32 2
  %1 = load ptr, ptr %other.addr, align 8
  %fData2 = getelementptr inbounds %"class.icu_75::RuleBasedTransliterator", ptr %1, i32 0, i32 2
  %2 = load ptr, ptr %fData2, align 8
  store ptr %2, ptr %fData, align 8
  %isDataOwned = getelementptr inbounds %"class.icu_75::RuleBasedTransliterator", ptr %this1, i32 0, i32 3
  %3 = load ptr, ptr %other.addr, align 8
  %isDataOwned3 = getelementptr inbounds %"class.icu_75::RuleBasedTransliterator", ptr %3, i32 0, i32 3
  %4 = load i8, ptr %isDataOwned3, align 8
  store i8 %4, ptr %isDataOwned, align 8
  %isDataOwned4 = getelementptr inbounds %"class.icu_75::RuleBasedTransliterator", ptr %this1, i32 0, i32 3
  %5 = load i8, ptr %isDataOwned4, align 8
  %tobool = icmp ne i8 %5, 0
  br i1 %tobool, label %if.then, label %if.end

if.then:                                          ; preds = %entry
  %call = call noundef ptr @_ZN6icu_757UMemorynwEm(i64 noundef 1168) #5
  %new.isnull = icmp eq ptr %call, null
  store i1 false, ptr %cleanup.cond, align 1
  br i1 %new.isnull, label %new.cont, label %new.notnull

new.notnull:                                      ; preds = %if.then
  store ptr %call, ptr %saved-rvalue, align 8
  store i1 true, ptr %cleanup.cond, align 1
  %6 = load ptr, ptr %other.addr, align 8
  %fData5 = getelementptr inbounds %"class.icu_75::RuleBasedTransliterator", ptr %6, i32 0, i32 2
  %7 = load ptr, ptr %fData5, align 8
  invoke void @_ZN6icu_7523TransliterationRuleDataC1ERKS0_(ptr noundef nonnull align 8 dereferenceable(1168) %call, ptr noundef nonnull align 8 dereferenceable(1168) %7)
          to label %invoke.cont unwind label %lpad

invoke.cont:                                      ; preds = %new.notnull
  br label %new.cont

new.cont:                                         ; preds = %invoke.cont, %if.then
  %8 = phi ptr [ %call, %invoke.cont ], [ null, %if.then ]
  %fData6 = getelementptr inbounds %"class.icu_75::RuleBasedTransliterator", ptr %this1, i32 0, i32 2
  store ptr %8, ptr %fData6, align 8
  br label %if.end

lpad:                                             ; preds = %new.notnull
  %9 = landingpad { ptr, i32 }
          cleanup
  %10 = extractvalue { ptr, i32 } %9, 0
  store ptr %10, ptr %exn.slot, align 8
  %11 = extractvalue { ptr, i32 } %9, 1
  store i32 %11, ptr %ehselector.slot, align 4
  %cleanup.is_active = load i1, ptr %cleanup.cond, align 1
  br i1 %cleanup.is_active, label %cleanup.action, label %cleanup.done

cleanup.action:                                   ; preds = %lpad
  %12 = load ptr, ptr %saved-rvalue, align 8
  call void @_ZN6icu_757UMemorydlEPv(ptr noundef %12) #5
  br label %cleanup.done

cleanup.done:                                     ; preds = %cleanup.action, %lpad
  call void @_ZN6icu_7514TransliteratorD2Ev(ptr noundef nonnull align 8 dereferenceable(84) %this1) #5
  br label %eh.resume

if.end:                                           ; preds = %new.cont, %entry
  ret void

eh.resume:                                        ; preds = %cleanup.done
  %exn = load ptr, ptr %exn.slot, align 8
  %sel = load i32, ptr %ehselector.slot, align 4
  %lpad.val = insertvalue { ptr, i32 } poison, ptr %exn, 0
  %lpad.val7 = insertvalue { ptr, i32 } %lpad.val, i32 %sel, 1
  resume { ptr, i32 } %lpad.val7
}