; Function Attrs: mustprogress uwtable
define void @_ZN6icu_7523RuleBasedTransliteratorC2ERKS0_(ptr noundef nonnull align 8 dereferenceable(97) %this, ptr noundef nonnull align 8 dereferenceable(97) %other) unnamed_addr #1 align 2 personality ptr @__gxx_personality_v0 {
entry:
  tail call void @_ZN6icu_7514TransliteratorC2ERKS0_(ptr noundef nonnull align 8 dereferenceable(84) %this, ptr noundef nonnull align 8 dereferenceable(84) %other)
  store ptr getelementptr inbounds ({ [19 x ptr] }, ptr @_ZTVN6icu_7523RuleBasedTransliteratorE, i64 0, i32 0, i64 2), ptr %this, align 8
  %fData = getelementptr inbounds i8, ptr %this, i64 88
  %fData2 = getelementptr inbounds i8, ptr %other, i64 88
  %0 = load ptr, ptr %fData2, align 8
  store ptr %0, ptr %fData, align 8
  %isDataOwned = getelementptr inbounds i8, ptr %this, i64 96
  %isDataOwned3 = getelementptr inbounds i8, ptr %other, i64 96
  %1 = load i8, ptr %isDataOwned3, align 8
  store i8 %1, ptr %isDataOwned, align 8
  %tobool.not = icmp eq i8 %1, 0
  br i1 %tobool.not, label %if.end, label %if.then

if.then:                                          ; preds = %entry
  %call = tail call noundef ptr @_ZN6icu_757UMemorynwEm(i64 noundef 1168) #6
  %new.isnull = icmp eq ptr %call, null
  br i1 %new.isnull, label %new.cont, label %new.notnull

new.notnull:                                      ; preds = %if.then
  %2 = load ptr, ptr %fData2, align 8
  invoke void @_ZN6icu_7523TransliterationRuleDataC1ERKS0_(ptr noundef nonnull align 8 dereferenceable(1168) %call, ptr noundef nonnull align 8 dereferenceable(1168) %2)
          to label %new.cont unwind label %lpad

new.cont:                                         ; preds = %new.notnull, %if.then
  store ptr %call, ptr %fData, align 8
  br label %if.end

lpad:                                             ; preds = %new.notnull
  %3 = landingpad { ptr, i32 }
          cleanup
  tail call void @_ZN6icu_757UMemorydlEPv(ptr noundef nonnull %call) #6
  tail call void @_ZN6icu_7514TransliteratorD2Ev(ptr noundef nonnull align 8 dereferenceable(84) %this) #6
  resume { ptr, i32 } %3

if.end:                                           ; preds = %new.cont, %entry
  ret void
}